target datalayout = "e-m:e-p270:32:32-p271:32:32-p272:64:64-i64:64-i128:128-f80:128-n8:16:32:64-S128"
target triple = "x86_64-pc-linux-gnu"

%"struct.std::_Vector_base" = type { %"struct.std::_Vector_base<int, std::allocator<int>>::_Vector_impl" }
%"struct.std::_Vector_base<int, std::allocator<int>>::_Vector_impl" = type { %"struct.std::_Vector_base<int, std::allocator<int>>::_Vector_impl_data" }
%"struct.std::_Vector_base<int, std::allocator<int>>::_Vector_impl_data" = type { ptr, ptr, ptr }

; Function Attrs: mustprogress nounwind uwtable
define linkonce_odr dso_local void @_ZNSt12_Destroy_auxILb1EE9__destroyIPiEEvT_S3_(ptr noundef %0, ptr noundef %1) #4 comdat align 2 {
  %3 = alloca ptr, align 8
  %4 = alloca ptr, align 8
  store ptr %0, ptr %3, align 8, !tbaa !207
  store ptr %1, ptr %4, align 8, !tbaa !207
  ret void
}

; Function Attrs: inlinehint mustprogress uwtable
define linkonce_odr dso_local void @_ZSt8_DestroyIPiEvT_S1_(ptr noundef %0, ptr noundef %1) #7 comdat {
  %3 = alloca ptr, align 8
  %4 = alloca ptr, align 8
  store ptr %0, ptr %3, align 8, !tbaa !207
  store ptr %1, ptr %4, align 8, !tbaa !207
  %5 = load ptr, ptr %3, align 8, !tbaa !207
  %6 = load ptr, ptr %4, align 8, !tbaa !207
  call void @_ZNSt12_Destroy_auxILb1EE9__destroyIPiEEvT_S3_(ptr noundef %5, ptr noundef %6)
  ret void
}

; Function Attrs: noinline noreturn nounwind uwtable
define linkonce_odr hidden void @__clang_call_terminate(ptr noundef %0) #8 comdat {
  %2 = call ptr @__cxa_begin_catch(ptr %0) #3
  call void @_ZSt9terminatev() #15
  unreachable
}

; Function Attrs: inlinehint mustprogress uwtable
define linkonce_odr dso_local void @_ZSt8_DestroyIPiiEvT_S1_RSaIT0_E(ptr noundef %0, ptr noundef %1, ptr noundef nonnull align 1 dereferenceable(1) %2) #7 comdat {
  %4 = alloca ptr, align 8
  %5 = alloca ptr, align 8
  %6 = alloca ptr, align 8
  store ptr %0, ptr %4, align 8, !tbaa !207
  store ptr %1, ptr %5, align 8, !tbaa !207
  store ptr %2, ptr %6, align 8, !tbaa !178
  %7 = load ptr, ptr %4, align 8, !tbaa !207
  %8 = load ptr, ptr %5, align 8, !tbaa !207
  call void @_ZSt8_DestroyIPiEvT_S1_(ptr noundef %7, ptr noundef %8)
  ret void
}

; Function Attrs: mustprogress nounwind uwtable
define linkonce_odr dso_local noundef nonnull align 1 dereferenceable(1) ptr @_ZNSt12_Vector_baseIiSaIiEE19_M_get_Tp_allocatorEv(ptr noundef nonnull align 8 dereferenceable(24) %0) #4 comdat align 2 {
  %2 = alloca ptr, align 8
  store ptr %0, ptr %2, align 8, !tbaa !174
  %3 = load ptr, ptr %2, align 8
  %4 = getelementptr inbounds nuw %"struct.std::_Vector_base", ptr %3, i32 0, i32 0
  ret ptr %4
}

; Function Attrs: mustprogress nounwind uwtable
define linkonce_odr dso_local void @_ZNSt6vectorIiSaIiEE15_M_erase_at_endEPi(ptr noundef nonnull align 8 dereferenceable(24) %0, ptr noundef %1) #4 comdat align 2 personality ptr @__gxx_personality_v0 {
  %3 = alloca ptr, align 8
  %4 = alloca ptr, align 8
  %5 = alloca i64, align 8
  store ptr %0, ptr %3, align 8, !tbaa !4
  store ptr %1, ptr %4, align 8, !tbaa !207
  %6 = load ptr, ptr %3, align 8
  call void @llvm.lifetime.start.p0(i64 8, ptr %5) #3
  %7 = getelementptr inbounds nuw %"struct.std::_Vector_base", ptr %6, i32 0, i32 0
  %8 = getelementptr inbounds nuw %"struct.std::_Vector_base<int, std::allocator<int>>::_Vector_impl_data", ptr %7, i32 0, i32 1
  %9 = load ptr, ptr %8, align 8, !tbaa !12
  %10 = load ptr, ptr %4, align 8, !tbaa !207
  %11 = ptrtoint ptr %9 to i64
  %12 = ptrtoint ptr %10 to i64
  %13 = sub i64 %11, %12
  %14 = sdiv exact i64 %13, 4
  store i64 %14, ptr %5, align 8, !tbaa !26
  %15 = load i64, ptr %5, align 8, !tbaa !26
  %16 = icmp ne i64 %15, 0
  br i1 %16, label %17, label %27

17:                                               ; preds = %2
  %18 = load ptr, ptr %4, align 8, !tbaa !207
  %19 = getelementptr inbounds nuw %"struct.std::_Vector_base", ptr %6, i32 0, i32 0
  %20 = getelementptr inbounds nuw %"struct.std::_Vector_base<int, std::allocator<int>>::_Vector_impl_data", ptr %19, i32 0, i32 1
  %21 = load ptr, ptr %20, align 8, !tbaa !12
  %22 = call noundef nonnull align 1 dereferenceable(1) ptr @_ZNSt12_Vector_baseIiSaIiEE19_M_get_Tp_allocatorEv(ptr noundef nonnull align 8 dereferenceable(24) %6) #3
  invoke void @_ZSt8_DestroyIPiiEvT_S1_RSaIT0_E(ptr noundef %18, ptr noundef %21, ptr noundef nonnull align 1 dereferenceable(1) %22)
          to label %23 unwind label %28

23:                                               ; preds = %17
  %24 = load ptr, ptr %4, align 8, !tbaa !207
  %25 = getelementptr inbounds nuw %"struct.std::_Vector_base", ptr %6, i32 0, i32 0
  %26 = getelementptr inbounds nuw %"struct.std::_Vector_base<int, std::allocator<int>>::_Vector_impl_data", ptr %25, i32 0, i32 1
  store ptr %24, ptr %26, align 8, !tbaa !12
  br label %27

27:                                               ; preds = %23, %2
  call void @llvm.lifetime.end.p0(i64 8, ptr %5) #3
  ret void

28:                                               ; preds = %17
  %29 = landingpad { ptr, i32 }
          catch ptr null
  %30 = extractvalue { ptr, i32 } %29, 0
  call void @__clang_call_terminate(ptr %30) #15
  unreachable
}

; Function Attrs: mustprogress nounwind uwtable
define linkonce_odr dso_local noundef nonnull align 4 dereferenceable(4) ptr @_ZNSt6vectorIiSaIiEEixEm(ptr noundef nonnull align 8 dereferenceable(24) %0, i64 noundef %1) #4 comdat align 2 {
  %3 = alloca ptr, align 8
  %4 = alloca i64, align 8
  store ptr %0, ptr %3, align 8, !tbaa !4
  store i64 %1, ptr %4, align 8, !tbaa !26
  %5 = load ptr, ptr %3, align 8
  %6 = getelementptr inbounds nuw %"struct.std::_Vector_base", ptr %5, i32 0, i32 0
  %7 = getelementptr inbounds nuw %"struct.std::_Vector_base<int, std::allocator<int>>::_Vector_impl_data", ptr %6, i32 0, i32 0
  %8 = load ptr, ptr %7, align 8, !tbaa !9
  %9 = load i64, ptr %4, align 8, !tbaa !26
  %10 = getelementptr inbounds nuw i32, ptr %8, i64 %9
  ret ptr %10
}

; Function Attrs: mustprogress uwtable
define linkonce_odr dso_local void @_ZNSt6vectorIiSaIiEE6resizeEm(ptr noundef nonnull align 8 dereferenceable(24) %0, i64 noundef %1) #5 comdat align 2 {
  %3 = alloca ptr, align 8
  %4 = alloca i64, align 8
  store ptr %0, ptr %3, align 8, !tbaa !4
  store i64 %1, ptr %4, align 8, !tbaa !26
  %5 = load ptr, ptr %3, align 8
  %6 = load i64, ptr %4, align 8, !tbaa !26
  %7 = call noundef i64 @_ZNKSt6vectorIiSaIiEE4sizeEv(ptr noundef nonnull align 8 dereferenceable(24) %5) #3
  %8 = icmp ugt i64 %6, %7
  br i1 %8, label %9, label %13

9:                                                ; preds = %2
  %10 = load i64, ptr %4, align 8, !tbaa !26
  %11 = call noundef i64 @_ZNKSt6vectorIiSaIiEE4sizeEv(ptr noundef nonnull align 8 dereferenceable(24) %5) #3
  %12 = sub i64 %10, %11
  call void @_ZNSt6vectorIiSaIiEE17_M_default_appendEm(ptr noundef nonnull align 8 dereferenceable(24) %5, i64 noundef %12)
  br label %24

13:                                               ; preds = %2
  %14 = load i64, ptr %4, align 8, !tbaa !26
  %15 = call noundef i64 @_ZNKSt6vectorIiSaIiEE4sizeEv(ptr noundef nonnull align 8 dereferenceable(24) %5) #3
  %16 = icmp ult i64 %14, %15
  br i1 %16, label %17, label %23

17:                                               ; preds = %13
  %18 = getelementptr inbounds nuw %"struct.std::_Vector_base", ptr %5, i32 0, i32 0
  %19 = getelementptr inbounds nuw %"struct.std::_Vector_base<int, std::allocator<int>>::_Vector_impl_data", ptr %18, i32 0, i32 0
  %20 = load ptr, ptr %19, align 8, !tbaa !9
  %21 = load i64, ptr %4, align 8, !tbaa !26
  %22 = getelementptr inbounds nuw i32, ptr %20, i64 %21
  call void @_ZNSt6vectorIiSaIiEE15_M_erase_at_endEPi(ptr noundef nonnull align 8 dereferenceable(24) %5, ptr noundef %22) #3
  br label %23

23:                                               ; preds = %17, %13
  br label %24

24:                                               ; preds = %23, %9
  ret void
}

; Function Attrs: mustprogress nounwind uwtable
define linkonce_odr dso_local noundef i64 @_ZNKSt6vectorIiSaIiEE4sizeEv(ptr noundef nonnull align 8 dereferenceable(24) %0) #4 comdat align 2 {
  %2 = alloca ptr, align 8
  store ptr %0, ptr %2, align 8, !tbaa !4
  %3 = load ptr, ptr %2, align 8
  %4 = getelementptr inbounds nuw %"struct.std::_Vector_base", ptr %3, i32 0, i32 0
  %5 = getelementptr inbounds nuw %"struct.std::_Vector_base<int, std::allocator<int>>::_Vector_impl_data", ptr %4, i32 0, i32 1
  %6 = load ptr, ptr %5, align 8, !tbaa !12
  %7 = getelementptr inbounds nuw %"struct.std::_Vector_base", ptr %3, i32 0, i32 0
  %8 = getelementptr inbounds nuw %"struct.std::_Vector_base<int, std::allocator<int>>::_Vector_impl_data", ptr %7, i32 0, i32 0
  %9 = load ptr, ptr %8, align 8, !tbaa !9
  %10 = ptrtoint ptr %6 to i64
  %11 = ptrtoint ptr %9 to i64
  %12 = sub i64 %10, %11
  %13 = sdiv exact i64 %12, 4
  ret i64 %13
}

; Function Attrs: mustprogress uwtable
define dso_local void @_Z12incr_counterRSt6vectorIiSaIiEEi(ptr noundef nonnull align 8 dereferenceable(24) %0, i32 noundef %1) #5 {
  %3 = alloca ptr, align 8
  %4 = alloca i32, align 4
  %5 = alloca i64, align 8
  %6 = alloca i64, align 8
  %7 = alloca i64, align 8
  store ptr %0, ptr %3, align 8, !tbaa !4
  store i32 %1, ptr %4, align 4, !tbaa !15
  call void @llvm.lifetime.start.p0(i64 8, ptr %5) #3
  %8 = load ptr, ptr %3, align 8, !tbaa !4
  %9 = call noundef i64 @_ZNKSt6vectorIiSaIiEE4sizeEv(ptr noundef nonnull align 8 dereferenceable(24) %8) #3
  store i64 %9, ptr %5, align 8, !tbaa !26
  call void @llvm.lifetime.start.p0(i64 8, ptr %6) #3
  %10 = load i32, ptr %4, align 4, !tbaa !15
  %11 = sext i32 %10 to i64
  store i64 %11, ptr %6, align 8, !tbaa !26
  %12 = load i64, ptr %6, align 8, !tbaa !26
  %13 = load i64, ptr %5, align 8, !tbaa !26
  %14 = icmp uge i64 %12, %13
  br i1 %14, label %15, label %33

15:                                               ; preds = %2
  %16 = load ptr, ptr %3, align 8, !tbaa !4
  %17 = load i64, ptr %6, align 8, !tbaa !26
  %18 = add i64 %17, 1
  call void @_ZNSt6vectorIiSaIiEE6resizeEm(ptr noundef nonnull align 8 dereferenceable(24) %16, i64 noundef %18)
  call void @llvm.lifetime.start.p0(i64 8, ptr %7) #3
  %19 = load i64, ptr %5, align 8, !tbaa !26
  store i64 %19, ptr %7, align 8, !tbaa !26
  br label %20

20:                                               ; preds = %29, %15
  %21 = load i64, ptr %7, align 8, !tbaa !26
  %22 = load i64, ptr %6, align 8, !tbaa !26
  %23 = icmp ule i64 %21, %22
  br i1 %23, label %25, label %24

24:                                               ; preds = %20
  call void @llvm.lifetime.end.p0(i64 8, ptr %7) #3
  br label %32

25:                                               ; preds = %20
  %26 = load ptr, ptr %3, align 8, !tbaa !4
  %27 = load i64, ptr %7, align 8, !tbaa !26
  %28 = call noundef nonnull align 4 dereferenceable(4) ptr @_ZNSt6vectorIiSaIiEEixEm(ptr noundef nonnull align 8 dereferenceable(24) %26, i64 noundef %27) #3
  store i32 0, ptr %28, align 4, !tbaa !15
  br label %29

29:                                               ; preds = %25
  %30 = load i64, ptr %7, align 8, !tbaa !26
  %31 = add i64 %30, 1
  store i64 %31, ptr %7, align 8, !tbaa !26
  br label %20, !llvm.loop !32

32:                                               ; preds = %24
  br label %33

33:                                               ; preds = %32, %2
  %34 = load ptr, ptr %3, align 8, !tbaa !4
  %35 = load i64, ptr %6, align 8, !tbaa !26
  %36 = call noundef nonnull align 4 dereferenceable(4) ptr @_ZNSt6vectorIiSaIiEEixEm(ptr noundef nonnull align 8 dereferenceable(24) %34, i64 noundef %35) #3
  %37 = load i32, ptr %36, align 4, !tbaa !15
  %38 = add nsw i32 %37, 1
  store i32 %38, ptr %36, align 4, !tbaa !15
  call void @llvm.lifetime.end.p0(i64 8, ptr %6) #3
  call void @llvm.lifetime.end.p0(i64 8, ptr %5) #3
  ret void
}