; Function Attrs: mustprogress uwtable
define dso_local void @_Z12incr_counterRSt6vectorIiSaIiEEi(ptr noundef nonnull align 8 dereferenceable(24) %0, i32 noundef %1) local_unnamed_addr #6 personality ptr @__gxx_personality_v0 {
  %3 = getelementptr inbounds nuw i8, ptr %0, i64 8
  %4 = load ptr, ptr %3, align 8, !tbaa !11
  %5 = load ptr, ptr %0, align 8, !tbaa !4
  %6 = ptrtoint ptr %4 to i64
  %7 = ptrtoint ptr %5 to i64
  %8 = sub i64 %6, %7
  %9 = ashr exact i64 %8, 2
  %10 = sext i32 %1 to i64
  %.not = icmp ugt i64 %9, %10
  br i1 %.not, label %.loopexit, label %11

11:                                               ; preds = %2
  %12 = add nsw i64 %10, 1
  %13 = icmp ugt i64 %12, %9
  br i1 %13, label %14, label %16

14:                                               ; preds = %11
  %15 = sub nuw nsw i64 %12, %9
  tail call void @_ZNSt6vectorIiSaIiEE17_M_default_appendEm(ptr noundef nonnull align 8 dereferenceable(24) %0, i64 noundef %15)
  br label %.lr.ph

16:                                               ; preds = %11
  %17 = icmp ult i64 %12, %9
  br i1 %17, label %18, label %.lr.ph

18:                                               ; preds = %16
  %19 = getelementptr inbounds nuw i32, ptr %5, i64 %12
  %.not.i.i = icmp eq ptr %4, %19
  br i1 %.not.i.i, label %.lr.ph, label %20

20:                                               ; preds = %18
  store ptr %19, ptr %3, align 8, !tbaa !11
  br label %.lr.ph

.lr.ph:                                           ; preds = %20, %18, %16, %14
  %21 = load ptr, ptr %0, align 8, !tbaa !4
  %scevgep = getelementptr nuw i8, ptr %21, i64 %8
  %22 = add nsw i64 %9, 1
  %umax = tail call i64 @llvm.umax.i64(i64 %22, i64 %12)
  %23 = shl i64 %umax, 2
  %24 = sub i64 %23, %8
  tail call void @llvm.memset.p0.i64(ptr align 4 %scevgep, i8 0, i64 %24, i1 false), !tbaa !12
  br label %.loopexit

.loopexit:                                        ; preds = %.lr.ph, %2
  %25 = phi ptr [ %21, %.lr.ph ], [ %5, %2 ]
  %26 = getelementptr inbounds nuw i32, ptr %25, i64 %10
  %27 = load i32, ptr %26, align 4, !tbaa !12
  %28 = add nsw i32 %27, 1
  store i32 %28, ptr %26, align 4, !tbaa !12
  ret void
}